; ModuleID = '9/781.c'
source_filename = "9/781.c"
target datalayout = "e-m:e-p270:32:32-p271:32:32-p272:64:64-i64:64-f80:128-n8:16:32:64-S128"
target triple = "x86_64-pc-linux-gnu"

%struct.patient = type { [10 x i32], i32 }
%struct.a = type { [10 x i32], i32 }

@.str = private unnamed_addr constant [3 x i8] c"%d\00", align 1
@.str.1 = private unnamed_addr constant [6 x i8] c"%s %d\00", align 1
@.str.2 = private unnamed_addr constant [4 x i8] c"%s\0A\00", align 1

; Function Attrs: noinline nounwind uwtable
define dso_local void @main() #0 {
  %1 = alloca i32, align 4
  %2 = alloca [100 x %struct.patient], align 16
  %3 = alloca [100 x %struct.a], align 16
  %4 = alloca i32, align 4
  %5 = alloca i32, align 4
  %6 = alloca i32, align 4
  %7 = alloca i32, align 4
  %8 = alloca i32, align 4
  %9 = call i32 (i8*, ...) @__isoc99_scanf(i8* getelementptr inbounds ([3 x i8], [3 x i8]* @.str, i64 0, i64 0), i32* %1)
  store i32 0, i32* %5, align 4
  store i32 0, i32* %6, align 4
  store i32 0, i32* %4, align 4
  br label %10

10:                                               ; preds = %25, %0
  %11 = load i32, i32* %4, align 4
  %12 = load i32, i32* %1, align 4
  %13 = icmp slt i32 %11, %12
  br i1 %13, label %14, label %28

14:                                               ; preds = %10
  %15 = load i32, i32* %4, align 4
  %16 = sext i32 %15 to i64
  %17 = getelementptr inbounds [100 x %struct.patient], [100 x %struct.patient]* %2, i64 0, i64 %16
  %18 = getelementptr inbounds %struct.patient, %struct.patient* %17, i32 0, i32 0
  %19 = getelementptr inbounds [10 x i32], [10 x i32]* %18, i64 0, i64 0
  %20 = load i32, i32* %4, align 4
  %21 = sext i32 %20 to i64
  %22 = getelementptr inbounds [100 x %struct.patient], [100 x %struct.patient]* %2, i64 0, i64 %21
  %23 = getelementptr inbounds %struct.patient, %struct.patient* %22, i32 0, i32 1
  %24 = call i32 (i8*, ...) @__isoc99_scanf(i8* getelementptr inbounds ([6 x i8], [6 x i8]* @.str.1, i64 0, i64 0), i32* %19, i32* %23)
  br label %25

25:                                               ; preds = %14
  %26 = load i32, i32* %4, align 4
  %27 = add nsw i32 %26, 1
  store i32 %27, i32* %4, align 4
  br label %10

28:                                               ; preds = %10
  store i32 0, i32* %4, align 4
  br label %29

29:                                               ; preds = %66, %28
  %30 = load i32, i32* %4, align 4
  %31 = load i32, i32* %1, align 4
  %32 = icmp slt i32 %30, %31
  br i1 %32, label %33, label %69

33:                                               ; preds = %29
  %34 = load i32, i32* %4, align 4
  %35 = sext i32 %34 to i64
  %36 = getelementptr inbounds [100 x %struct.patient], [100 x %struct.patient]* %2, i64 0, i64 %35
  %37 = getelementptr inbounds %struct.patient, %struct.patient* %36, i32 0, i32 1
  %38 = load i32, i32* %37, align 4
  %39 = icmp sge i32 %38, 60
  br i1 %39, label %40, label %65

40:                                               ; preds = %33
  %41 = load i32, i32* %5, align 4
  %42 = sext i32 %41 to i64
  %43 = getelementptr inbounds [100 x %struct.a], [100 x %struct.a]* %3, i64 0, i64 %42
  %44 = getelementptr inbounds %struct.a, %struct.a* %43, i32 0, i32 0
  %45 = getelementptr inbounds [10 x i32], [10 x i32]* %44, i64 0, i64 0
  %46 = bitcast i32* %45 to i8*
  %47 = load i32, i32* %4, align 4
  %48 = sext i32 %47 to i64
  %49 = getelementptr inbounds [100 x %struct.patient], [100 x %struct.patient]* %2, i64 0, i64 %48
  %50 = getelementptr inbounds %struct.patient, %struct.patient* %49, i32 0, i32 0
  %51 = getelementptr inbounds [10 x i32], [10 x i32]* %50, i64 0, i64 0
  %52 = bitcast i32* %51 to i8*
  %53 = call i8* @strcpy(i8* %46, i8* %52) #3
  %54 = load i32, i32* %4, align 4
  %55 = sext i32 %54 to i64
  %56 = getelementptr inbounds [100 x %struct.patient], [100 x %struct.patient]* %2, i64 0, i64 %55
  %57 = getelementptr inbounds %struct.patient, %struct.patient* %56, i32 0, i32 1
  %58 = load i32, i32* %57, align 4
  %59 = load i32, i32* %5, align 4
  %60 = sext i32 %59 to i64
  %61 = getelementptr inbounds [100 x %struct.a], [100 x %struct.a]* %3, i64 0, i64 %60
  %62 = getelementptr inbounds %struct.a, %struct.a* %61, i32 0, i32 1
  store i32 %58, i32* %62, align 4
  %63 = load i32, i32* %5, align 4
  %64 = add nsw i32 %63, 1
  store i32 %64, i32* %5, align 4
  br label %65

65:                                               ; preds = %40, %33
  br label %66

66:                                               ; preds = %65
  %67 = load i32, i32* %4, align 4
  %68 = add nsw i32 %67, 1
  store i32 %68, i32* %4, align 4
  br label %29

69:                                               ; preds = %29
  %70 = load i32, i32* %5, align 4
  store i32 %70, i32* %7, align 4
  %71 = getelementptr inbounds [100 x %struct.a], [100 x %struct.a]* %3, i64 0, i64 0
  %72 = getelementptr inbounds %struct.a, %struct.a* %71, i32 0, i32 1
  %73 = load i32, i32* %72, align 8
  store i32 %73, i32* %8, align 4
  store i32 0, i32* %4, align 4
  br label %74

74:                                               ; preds = %102, %69
  %75 = load i32, i32* %4, align 4
  %76 = load i32, i32* %7, align 4
  %77 = icmp slt i32 %75, %76
  br i1 %77, label %78, label %115

78:                                               ; preds = %74
  store i32 0, i32* %5, align 4
  br label %79

79:                                               ; preds = %99, %78
  %80 = load i32, i32* %5, align 4
  %81 = load i32, i32* %7, align 4
  %82 = icmp slt i32 %80, %81
  br i1 %82, label %83, label %102

83:                                               ; preds = %79
  %84 = load i32, i32* %8, align 4
  %85 = load i32, i32* %5, align 4
  %86 = sext i32 %85 to i64
  %87 = getelementptr inbounds [100 x %struct.a], [100 x %struct.a]* %3, i64 0, i64 %86
  %88 = getelementptr inbounds %struct.a, %struct.a* %87, i32 0, i32 1
  %89 = load i32, i32* %88, align 4
  %90 = icmp slt i32 %84, %89
  br i1 %90, label %91, label %98

91:                                               ; preds = %83
  %92 = load i32, i32* %5, align 4
  %93 = sext i32 %92 to i64
  %94 = getelementptr inbounds [100 x %struct.a], [100 x %struct.a]* %3, i64 0, i64 %93
  %95 = getelementptr inbounds %struct.a, %struct.a* %94, i32 0, i32 1
  %96 = load i32, i32* %95, align 4
  store i32 %96, i32* %8, align 4
  %97 = load i32, i32* %5, align 4
  store i32 %97, i32* %6, align 4
  br label %98

98:                                               ; preds = %91, %83
  br label %99

99:                                               ; preds = %98
  %100 = load i32, i32* %5, align 4
  %101 = add nsw i32 %100, 1
  store i32 %101, i32* %5, align 4
  br label %79

102:                                              ; preds = %79
  %103 = load i32, i32* %6, align 4
  %104 = sext i32 %103 to i64
  %105 = getelementptr inbounds [100 x %struct.a], [100 x %struct.a]* %3, i64 0, i64 %104
  %106 = getelementptr inbounds %struct.a, %struct.a* %105, i32 0, i32 0
  %107 = getelementptr inbounds [10 x i32], [10 x i32]* %106, i64 0, i64 0
  %108 = call i32 (i8*, ...) @printf(i8* getelementptr inbounds ([4 x i8], [4 x i8]* @.str.2, i64 0, i64 0), i32* %107)
  %109 = load i32, i32* %6, align 4
  %110 = sext i32 %109 to i64
  %111 = getelementptr inbounds [100 x %struct.a], [100 x %struct.a]* %3, i64 0, i64 %110
  %112 = getelementptr inbounds %struct.a, %struct.a* %111, i32 0, i32 1
  store i32 0, i32* %112, align 4
  store i32 0, i32* %8, align 4
  %113 = load i32, i32* %4, align 4
  %114 = add nsw i32 %113, 1
  store i32 %114, i32* %4, align 4
  br label %74

115:                                              ; preds = %74
  store i32 0, i32* %4, align 4
  br label %116

116:                                              ; preds = %135, %115
  %117 = load i32, i32* %4, align 4
  %118 = load i32, i32* %1, align 4
  %119 = icmp slt i32 %117, %118
  br i1 %119, label %120, label %138

120:                                              ; preds = %116
  %121 = load i32, i32* %4, align 4
  %122 = sext i32 %121 to i64
  %123 = getelementptr inbounds [100 x %struct.patient], [100 x %struct.patient]* %2, i64 0, i64 %122
  %124 = getelementptr inbounds %struct.patient, %struct.patient* %123, i32 0, i32 1
  %125 = load i32, i32* %124, align 4
  %126 = icmp slt i32 %125, 60
  br i1 %126, label %127, label %134

127:                                              ; preds = %120
  %128 = load i32, i32* %4, align 4
  %129 = sext i32 %128 to i64
  %130 = getelementptr inbounds [100 x %struct.patient], [100 x %struct.patient]* %2, i64 0, i64 %129
  %131 = getelementptr inbounds %struct.patient, %struct.patient* %130, i32 0, i32 0
  %132 = getelementptr inbounds [10 x i32], [10 x i32]* %131, i64 0, i64 0
  %133 = call i32 (i8*, ...) @printf(i8* getelementptr inbounds ([4 x i8], [4 x i8]* @.str.2, i64 0, i64 0), i32* %132)
  br label %134

134:                                              ; preds = %127, %120
  br label %135

135:                                              ; preds = %134
  %136 = load i32, i32* %4, align 4
  %137 = add nsw i32 %136, 1
  store i32 %137, i32* %4, align 4
  br label %116

138:                                              ; preds = %116
  ret void
}

declare dso_local i32 @__isoc99_scanf(i8*, ...) #1

; Function Attrs: nounwind
declare dso_local i8* @strcpy(i8*, i8*) #2

declare dso_local i32 @printf(i8*, ...) #1


!llvm.module.flags = !{!0}
!llvm.ident = !{!1}

!0 = !{i32 1, !"wchar_size", i32 4}
!1 = !{!"clang version 10.0.0-4ubuntu1 "}
